; Function Attrs: mustprogress uwtable
define internal fastcc void @_ZN7Collada4TagsL9testSharpERK7QString(ptr dead_on_unwind noalias writable align 8 %0, ptr noundef nonnull align 8 dereferenceable(8) %1) unnamed_addr #9 personality ptr @__gxx_personality_v0 {
  %3 = alloca %class.QString, align 8
  %4 = tail call noundef ptr @_ZN7QString16fromAscii_helperEPKci(ptr noundef nonnull @.str.62, i32 noundef 0)
  store ptr %4, ptr %3, align 8
  %5 = load ptr, ptr %1, align 8
  %6 = getelementptr inbounds i8, ptr %5, i64 16
  %7 = load i64, ptr %6, align 8
  %8 = getelementptr inbounds i8, ptr %5, i64 %7
  %9 = load i16, ptr %8, align 2
  %.not = icmp eq i16 %9, 35
  br i1 %.not, label %_ZN7QStringaSEc.exit, label %10

10:                                               ; preds = %2
  %11 = invoke noundef nonnull align 8 dereferenceable(8) ptr @_ZN7QStringaSE5QChar(ptr noundef nonnull align 8 dereferenceable(8) %3, i16 35)
          to label %._ZN7QStringaSEc.exit_crit_edge unwind label %12

._ZN7QStringaSEc.exit_crit_edge:                  ; preds = %10
  %.pre = load ptr, ptr %3, align 8, !noalias !513
  br label %_ZN7QStringaSEc.exit

12:                                               ; preds = %10
  %13 = landingpad { ptr, i32 }
          cleanup
  br label %.body

.body:                                            ; preds = %20, %12
  %eh.lpad-body = phi { ptr, i32 } [ %13, %12 ], [ %21, %20 ]
  call void @_ZN7QStringD2Ev(ptr noundef nonnull align 8 dereferenceable(8) %3) #24
  resume { ptr, i32 } %eh.lpad-body

_ZN7QStringaSEc.exit:                             ; preds = %._ZN7QStringaSEc.exit_crit_edge, %2
  %14 = phi ptr [ %.pre, %._ZN7QStringaSEc.exit_crit_edge ], [ %4, %2 ]
  call void @llvm.experimental.noalias.scope.decl(metadata !513)
  store ptr %14, ptr %0, align 8, !alias.scope !513
  %15 = load atomic i32, ptr %14 monotonic, align 4, !noalias !513
  %16 = add i32 %15, -1
  %or.cond.not.i.i.i = icmp ult i32 %16, -2
  br i1 %or.cond.not.i.i.i, label %17, label %_ZN7QStringC2ERKS_.exit.i

17:                                               ; preds = %_ZN7QStringaSEc.exit
  %18 = atomicrmw add ptr %14, i32 1 seq_cst, align 4, !noalias !513
  br label %_ZN7QStringC2ERKS_.exit.i

_ZN7QStringC2ERKS_.exit.i:                        ; preds = %17, %_ZN7QStringaSEc.exit
  %19 = invoke noundef nonnull align 8 dereferenceable(8) ptr @_ZN7QString6appendERKS_(ptr noundef nonnull align 8 dereferenceable(8) %0, ptr noundef nonnull align 8 dereferenceable(8) %1)
          to label %_ZplRK7QStringS1_.exit unwind label %20

20:                                               ; preds = %_ZN7QStringC2ERKS_.exit.i
  %21 = landingpad { ptr, i32 }
          cleanup
  call void @_ZN7QStringD2Ev(ptr noundef nonnull align 8 dereferenceable(8) %0) #24
  br label %.body

_ZplRK7QStringS1_.exit:                           ; preds = %_ZN7QStringC2ERKS_.exit.i
  %22 = load ptr, ptr %3, align 8
  %23 = load atomic i32, ptr %22 monotonic, align 4
  switch i32 %23, label %_ZN9QtPrivate8RefCount5derefEv.exit.i [
    i32 0, label %_ZN9QtPrivate8RefCount5derefEv.exit.thread2.i
    i32 -1, label %_ZN7QStringD2Ev.exit
  ]

_ZN9QtPrivate8RefCount5derefEv.exit.i:            ; preds = %_ZplRK7QStringS1_.exit
  %24 = atomicrmw sub ptr %22, i32 1 seq_cst, align 4
  %.not.i = icmp eq i32 %24, 1
  br i1 %.not.i, label %_ZN9QtPrivate8RefCount5derefEv.exit._ZN9QtPrivate8RefCount5derefEv.exit.thread2_crit_edge.i, label %_ZN7QStringD2Ev.exit

_ZN9QtPrivate8RefCount5derefEv.exit._ZN9QtPrivate8RefCount5derefEv.exit.thread2_crit_edge.i: ; preds = %_ZN9QtPrivate8RefCount5derefEv.exit.i
  %.pre.i = load ptr, ptr %3, align 8
  br label %_ZN9QtPrivate8RefCount5derefEv.exit.thread2.i

_ZN9QtPrivate8RefCount5derefEv.exit.thread2.i:    ; preds = %_ZN9QtPrivate8RefCount5derefEv.exit._ZN9QtPrivate8RefCount5derefEv.exit.thread2_crit_edge.i, %_ZplRK7QStringS1_.exit
  %25 = phi ptr [ %.pre.i, %_ZN9QtPrivate8RefCount5derefEv.exit._ZN9QtPrivate8RefCount5derefEv.exit.thread2_crit_edge.i ], [ %22, %_ZplRK7QStringS1_.exit ]
  call void @_ZN10QArrayData10deallocateEPS_mm(ptr noundef %25, i64 noundef 2, i64 noundef 8) #24
  br label %_ZN7QStringD2Ev.exit

_ZN7QStringD2Ev.exit:                             ; preds = %_ZplRK7QStringS1_.exit, %_ZN9QtPrivate8RefCount5derefEv.exit.i, %_ZN9QtPrivate8RefCount5derefEv.exit.thread2.i
  ret void
}